target datalayout = "e-m:e-p270:32:32-p271:32:32-p272:64:64-i64:64-i128:128-f80:128-n8:16:32:64-S128"
target triple = "x86_64-pc-linux-gnu"

%"class.rocksdb::PointLockTracker" = type { %"class.rocksdb::LockTracker", %"class.std::unordered_map" }
%"class.rocksdb::LockTracker" = type { ptr }
%"class.std::unordered_map" = type { %"class.std::_Hashtable" }
%"class.std::_Hashtable" = type { ptr, i64, %"struct.std::__detail::_Hash_node_base", i64, %"struct.std::__detail::_Prime_rehash_policy", ptr }
%"struct.std::__detail::_Hash_node_base" = type { ptr }
%"struct.std::__detail::_Prime_rehash_policy" = type { float, i64 }
%"struct.std::__detail::_Node_iterator_base.28" = type { ptr }
%"struct.std::__detail::_Node_const_iterator" = type { %"struct.std::__detail::_Node_iterator_base.28" }
%"class.rocksdb::(anonymous namespace)::TrackedKeysColumnFamilyIterator" = type { %"class.rocksdb::LockTracker::ColumnFamilyIterator", ptr, %"struct.std::__detail::_Node_const_iterator" }
%"class.rocksdb::LockTracker::ColumnFamilyIterator" = type { ptr }

; Function Attrs: mustprogress nounwind uwtable
define linkonce_odr void @_ZNSt8__detail19_Node_iterator_baseISt4pairIKjSt13unordered_mapINSt7__cxx1112basic_stringIcSt11char_traitsIcESaIcEEEN7rocksdb14TrackedKeyInfoESt4hashIS9_ESt8equal_toIS9_ESaIS1_IKS9_SB_EEEELb0EEC2EPNS_10_Hash_nodeISK_Lb0EEE(ptr noundef nonnull align 8 dereferenceable(8) %0, ptr noundef %1) unnamed_addr #3 comdat align 2 {
  %3 = alloca ptr, align 8
  %4 = alloca ptr, align 8
  store ptr %0, ptr %3, align 8, !tbaa !52
  store ptr %1, ptr %4, align 8, !tbaa !151
  %5 = load ptr, ptr %3, align 8
  %6 = getelementptr inbounds nuw %"struct.std::__detail::_Node_iterator_base.28", ptr %5, i32 0, i32 0
  %7 = load ptr, ptr %4, align 8, !tbaa !151
  store ptr %7, ptr %6, align 8, !tbaa !54
  ret void
}

; Function Attrs: mustprogress nounwind uwtable
define linkonce_odr void @_ZNSt8__detail20_Node_const_iteratorISt4pairIKjSt13unordered_mapINSt7__cxx1112basic_stringIcSt11char_traitsIcESaIcEEEN7rocksdb14TrackedKeyInfoESt4hashIS9_ESt8equal_toIS9_ESaIS1_IKS9_SB_EEEELb0ELb0EEC2EPNS_10_Hash_nodeISK_Lb0EEE(ptr noundef nonnull align 8 dereferenceable(8) %0, ptr noundef %1) unnamed_addr #3 comdat align 2 {
  %3 = alloca ptr, align 8
  %4 = alloca ptr, align 8
  store ptr %0, ptr %3, align 8, !tbaa !78
  store ptr %1, ptr %4, align 8, !tbaa !151
  %5 = load ptr, ptr %3, align 8
  %6 = load ptr, ptr %4, align 8, !tbaa !151
  call void @_ZNSt8__detail19_Node_iterator_baseISt4pairIKjSt13unordered_mapINSt7__cxx1112basic_stringIcSt11char_traitsIcESaIcEEEN7rocksdb14TrackedKeyInfoESt4hashIS9_ESt8equal_toIS9_ESaIS1_IKS9_SB_EEEELb0EEC2EPNS_10_Hash_nodeISK_Lb0EEE(ptr noundef nonnull align 8 dereferenceable(8) %5, ptr noundef %6) #16
  ret void
}

; Function Attrs: mustprogress nounwind uwtable
define linkonce_odr noundef ptr @_ZNKSt10_HashtableIjSt4pairIKjSt13unordered_mapINSt7__cxx1112basic_stringIcSt11char_traitsIcESaIcEEEN7rocksdb14TrackedKeyInfoESt4hashIS8_ESt8equal_toIS8_ESaIS0_IKS8_SA_EEEESaISJ_ENSt8__detail10_Select1stESD_IjESB_IjENSL_18_Mod_range_hashingENSL_20_Default_ranged_hashENSL_20_Prime_rehash_policyENSL_17_Hashtable_traitsILb0ELb0ELb1EEEE8_M_beginEv(ptr noundef nonnull align 8 dereferenceable(56) %0) #3 comdat align 2 {
  %2 = alloca ptr, align 8
  store ptr %0, ptr %2, align 8, !tbaa !104
  %3 = load ptr, ptr %2, align 8
  %4 = getelementptr inbounds nuw %"class.std::_Hashtable", ptr %3, i32 0, i32 2
  %5 = getelementptr inbounds nuw %"struct.std::__detail::_Hash_node_base", ptr %4, i32 0, i32 0
  %6 = load ptr, ptr %5, align 8, !tbaa !155
  ret ptr %6
}

; Function Attrs: mustprogress nounwind uwtable
define linkonce_odr ptr @_ZNKSt10_HashtableIjSt4pairIKjSt13unordered_mapINSt7__cxx1112basic_stringIcSt11char_traitsIcESaIcEEEN7rocksdb14TrackedKeyInfoESt4hashIS8_ESt8equal_toIS8_ESaIS0_IKS8_SA_EEEESaISJ_ENSt8__detail10_Select1stESD_IjESB_IjENSL_18_Mod_range_hashingENSL_20_Default_ranged_hashENSL_20_Prime_rehash_policyENSL_17_Hashtable_traitsILb0ELb0ELb1EEEE5beginEv(ptr noundef nonnull align 8 dereferenceable(56) %0) #3 comdat align 2 {
  %2 = alloca %"struct.std::__detail::_Node_const_iterator", align 8
  %3 = alloca ptr, align 8
  store ptr %0, ptr %3, align 8, !tbaa !104
  %4 = load ptr, ptr %3, align 8
  %5 = call noundef ptr @_ZNKSt10_HashtableIjSt4pairIKjSt13unordered_mapINSt7__cxx1112basic_stringIcSt11char_traitsIcESaIcEEEN7rocksdb14TrackedKeyInfoESt4hashIS8_ESt8equal_toIS8_ESaIS0_IKS8_SA_EEEESaISJ_ENSt8__detail10_Select1stESD_IjESB_IjENSL_18_Mod_range_hashingENSL_20_Default_ranged_hashENSL_20_Prime_rehash_policyENSL_17_Hashtable_traitsILb0ELb0ELb1EEEE8_M_beginEv(ptr noundef nonnull align 8 dereferenceable(56) %4)
  call void @_ZNSt8__detail20_Node_const_iteratorISt4pairIKjSt13unordered_mapINSt7__cxx1112basic_stringIcSt11char_traitsIcESaIcEEEN7rocksdb14TrackedKeyInfoESt4hashIS9_ESt8equal_toIS9_ESaIS1_IKS9_SB_EEEELb0ELb0EEC2EPNS_10_Hash_nodeISK_Lb0EEE(ptr noundef nonnull align 8 dereferenceable(8) %2, ptr noundef %5) #16
  %6 = getelementptr inbounds nuw %"struct.std::__detail::_Node_const_iterator", ptr %2, i32 0, i32 0
  %7 = getelementptr inbounds nuw %"struct.std::__detail::_Node_iterator_base.28", ptr %6, i32 0, i32 0
  %8 = load ptr, ptr %7, align 8
  ret ptr %8
}

; Function Attrs: mustprogress nounwind uwtable
define linkonce_odr ptr @_ZNKSt13unordered_mapIjS_INSt7__cxx1112basic_stringIcSt11char_traitsIcESaIcEEEN7rocksdb14TrackedKeyInfoESt4hashIS5_ESt8equal_toIS5_ESaISt4pairIKS5_S7_EEES8_IjESA_IjESaISC_IKjSG_EEE5beginEv(ptr noundef nonnull align 8 dereferenceable(56) %0) #3 comdat align 2 {
  %2 = alloca %"struct.std::__detail::_Node_const_iterator", align 8
  %3 = alloca ptr, align 8
  store ptr %0, ptr %3, align 8, !tbaa !36
  %4 = load ptr, ptr %3, align 8
  %5 = getelementptr inbounds nuw %"class.std::unordered_map", ptr %4, i32 0, i32 0
  %6 = call ptr @_ZNKSt10_HashtableIjSt4pairIKjSt13unordered_mapINSt7__cxx1112basic_stringIcSt11char_traitsIcESaIcEEEN7rocksdb14TrackedKeyInfoESt4hashIS8_ESt8equal_toIS8_ESaIS0_IKS8_SA_EEEESaISJ_ENSt8__detail10_Select1stESD_IjESB_IjENSL_18_Mod_range_hashingENSL_20_Default_ranged_hashENSL_20_Prime_rehash_policyENSL_17_Hashtable_traitsILb0ELb0ELb1EEEE5beginEv(ptr noundef nonnull align 8 dereferenceable(56) %5) #16
  %7 = getelementptr inbounds nuw %"struct.std::__detail::_Node_const_iterator", ptr %2, i32 0, i32 0
  %8 = getelementptr inbounds nuw %"struct.std::__detail::_Node_iterator_base.28", ptr %7, i32 0, i32 0
  store ptr %6, ptr %8, align 8
  %9 = getelementptr inbounds nuw %"struct.std::__detail::_Node_const_iterator", ptr %2, i32 0, i32 0
  %10 = getelementptr inbounds nuw %"struct.std::__detail::_Node_iterator_base.28", ptr %9, i32 0, i32 0
  %11 = load ptr, ptr %10, align 8
  ret ptr %11
}

; Function Attrs: inlinehint mustprogress nounwind uwtable
define linkonce_odr void @_ZN7rocksdb11LockTracker20ColumnFamilyIteratorC2Ev(ptr noundef nonnull align 8 dereferenceable(8) %0) unnamed_addr #6 comdat align 2 {
  %2 = alloca ptr, align 8
  store ptr %0, ptr %2, align 8, !tbaa !145
  %3 = load ptr, ptr %2, align 8
  store ptr getelementptr inbounds inrange(-16, 32) ({ [6 x ptr] }, ptr @_ZTVN7rocksdb11LockTracker20ColumnFamilyIteratorE, i32 0, i32 0, i32 2), ptr %3, align 8, !tbaa !85
  ret void
}

; Function Attrs: mustprogress nounwind uwtable
define internal void @_ZN7rocksdb12_GLOBAL__N_131TrackedKeysColumnFamilyIteratorC2ERKSt13unordered_mapIjS2_INSt7__cxx1112basic_stringIcSt11char_traitsIcESaIcEEENS_14TrackedKeyInfoESt4hashIS8_ESt8equal_toIS8_ESaISt4pairIKS8_S9_EEESA_IjESC_IjESaISE_IKjSI_EEE(ptr noundef nonnull align 8 dereferenceable(24) %0, ptr noundef nonnull align 8 dereferenceable(56) %1) unnamed_addr #3 align 2 {
  %3 = alloca ptr, align 8
  %4 = alloca ptr, align 8
  store ptr %0, ptr %3, align 8, !tbaa !94
  store ptr %1, ptr %4, align 8, !tbaa !36
  %5 = load ptr, ptr %3, align 8
  call void @_ZN7rocksdb11LockTracker20ColumnFamilyIteratorC2Ev(ptr noundef nonnull align 8 dereferenceable(8) %5) #16
  store ptr getelementptr inbounds inrange(-16, 32) ({ [6 x ptr] }, ptr @_ZTVN7rocksdb12_GLOBAL__N_131TrackedKeysColumnFamilyIteratorE, i32 0, i32 0, i32 2), ptr %5, align 8, !tbaa !85
  %6 = getelementptr inbounds nuw %"class.rocksdb::(anonymous namespace)::TrackedKeysColumnFamilyIterator", ptr %5, i32 0, i32 1
  %7 = load ptr, ptr %4, align 8, !tbaa !36
  store ptr %7, ptr %6, align 8, !tbaa !36
  %8 = getelementptr inbounds nuw %"class.rocksdb::(anonymous namespace)::TrackedKeysColumnFamilyIterator", ptr %5, i32 0, i32 2
  %9 = load ptr, ptr %4, align 8, !tbaa !36
  %10 = call ptr @_ZNKSt13unordered_mapIjS_INSt7__cxx1112basic_stringIcSt11char_traitsIcESaIcEEEN7rocksdb14TrackedKeyInfoESt4hashIS5_ESt8equal_toIS5_ESaISt4pairIKS5_S7_EEES8_IjESA_IjESaISC_IKjSG_EEE5beginEv(ptr noundef nonnull align 8 dereferenceable(56) %9) #16
  %11 = getelementptr inbounds nuw %"struct.std::__detail::_Node_const_iterator", ptr %8, i32 0, i32 0
  %12 = getelementptr inbounds nuw %"struct.std::__detail::_Node_iterator_base.28", ptr %11, i32 0, i32 0
  store ptr %10, ptr %12, align 8
  ret void
}

; Function Attrs: mustprogress uwtable
define noundef ptr @_ZNK7rocksdb16PointLockTracker23GetColumnFamilyIteratorEv(ptr noundef nonnull align 8 dereferenceable(64) %0) unnamed_addr #0 align 2 personality ptr @__gxx_personality_v0 {
  %2 = alloca ptr, align 8
  %3 = alloca ptr, align 8
  %4 = alloca i32, align 4
  store ptr %0, ptr %2, align 8, !tbaa !4
  %5 = load ptr, ptr %2, align 8
  %6 = call noalias noundef nonnull ptr @_Znwm(i64 noundef 24) #17
  %7 = getelementptr inbounds nuw %"class.rocksdb::PointLockTracker", ptr %5, i32 0, i32 1
  invoke void @_ZN7rocksdb12_GLOBAL__N_131TrackedKeysColumnFamilyIteratorC2ERKSt13unordered_mapIjS2_INSt7__cxx1112basic_stringIcSt11char_traitsIcESaIcEEENS_14TrackedKeyInfoESt4hashIS8_ESt8equal_toIS8_ESaISt4pairIKS8_S9_EEESA_IjESC_IjESaISE_IKjSI_EEE(ptr noundef nonnull align 8 dereferenceable(24) %6, ptr noundef nonnull align 8 dereferenceable(56) %7)
          to label %8 unwind label %9

8:                                                ; preds = %1
  ret ptr %6

9:                                                ; preds = %1
  %10 = landingpad { ptr, i32 }
          cleanup
  %11 = extractvalue { ptr, i32 } %10, 0
  store ptr %11, ptr %3, align 8
  %12 = extractvalue { ptr, i32 } %10, 1
  store i32 %12, ptr %4, align 4
  call void @_ZdlPvm(ptr noundef %6, i64 noundef 24) #18
  br label %13

13:                                               ; preds = %9
  %14 = load ptr, ptr %3, align 8
  %15 = load i32, ptr %4, align 4
  %16 = insertvalue { ptr, i32 } poison, ptr %14, 0
  %17 = insertvalue { ptr, i32 } %16, i32 %15, 1
  resume { ptr, i32 } %17
}