; Function Attrs: mustprogress uwtable
define noalias noundef nonnull ptr @_ZNK7rocksdb16PointLockTracker23GetColumnFamilyIteratorEv(ptr noundef nonnull align 8 dereferenceable(64) %0) unnamed_addr #0 align 2 personality ptr @__gxx_personality_v0 {
  %2 = tail call noalias noundef nonnull dereferenceable(24) ptr @_Znwm(i64 noundef 24) #20
  %3 = getelementptr inbounds nuw i8, ptr %0, i64 8
  store ptr getelementptr inbounds nuw inrange(-16, 32) (i8, ptr @_ZTVN7rocksdb12_GLOBAL__N_131TrackedKeysColumnFamilyIteratorE, i64 16), ptr %2, align 8, !tbaa !60
  %4 = getelementptr inbounds nuw i8, ptr %2, i64 8
  store ptr %3, ptr %4, align 8, !tbaa !69
  %5 = getelementptr inbounds nuw i8, ptr %2, i64 16
  %6 = getelementptr inbounds nuw i8, ptr %0, i64 24
  %7 = load ptr, ptr %6, align 8, !tbaa !71
  store ptr %7, ptr %5, align 8
  ret ptr %2
}